(lp0
(S'stty'
p1
S'/bin/stty'
p2
tp3
a(S'version.txt'
p4
S'/usr/share/arduino/lib/version.txt'
p5
tp6
a(S'boards.txt'
p7
S'/usr/share/arduino/hardware/arduino/boards.txt'
p8
tp9
a(S'used_libs'
p10
(lp11
S'lib/TinyGPS'
p12
aS'lib/LSM303'
p13
aS'/usr/share/arduino/libraries/SoftwareSerial'
p14
aS'/usr/share/arduino/libraries/Servo'
p15
aS'lib/ros_lib'
p16
aS'/usr/share/arduino/libraries/Wire'
p17
aS'/usr/share/arduino/hardware/arduino/cores/arduino'
p18
atp19
a(S'cxx'
p20
S'/usr/bin/avr-g++'
p21
tp22
a(S'arduino_libraries_dir'
p23
S'/usr/share/arduino/libraries'
p24
tp25
a(S'arduino_core_dir'
p26
g18
tp27
a(S'build_dir'
p28
S'.build/alamode'
p29
tp30
a(S'cxxflags'
p31
ccopy_reg
_reconstructor
p32
(cino.utils
SpaceList
p33
c__builtin__
list
p34
(lp35
S'-fno-exceptions'
p36
atp37
Rp38
tp39
a(S'arduino_variants_dir'
p40
S'/usr/share/arduino/hardware/arduino/variants'
p41
tp42
a(S'avrdude'
p43
S'/usr/share/arduino/hardware/tools/avrdude'
p44
tp45
a(S'avrdude.conf'
p46
S'/usr/share/arduino/hardware/tools/avrdude.conf'
p47
tp48
a(S'names'
p49
(dp50
S'cpp'
p51
S'%s.cpp'
p52
sS'obj'
p53
S'%s.o'
p54
sS'deps'
p55
S'%s.d'
p56
sS'lib'
p57
S'lib%s.a'
p58
stp59
a(S'cflags'
p60
g32
(g33
g34
(lp61
S'-mmcu=atmega328p'
p62
aS'-ffunction-sections'
p63
aS'-fdata-sections'
p64
aS'-g'
p65
aS'-Os'
p66
aS'-w'
p67
aS'-DF_CPU=16000000L'
p68
aS'-DARDUINO=100'
p69
aS'-I/usr/share/arduino/hardware/arduino/cores/arduino'
p70
aS'-I/usr/share/arduino/hardware/arduino/variants/standard'
p71
aS'-Ilib/TinyGPS'
p72
aS'-Ilib/TinyGPS/Examples'
p73
aS'-Ilib/TinyGPS/Examples/static_test'
p74
aS'-Ilib/TinyGPS/Examples/test_with_gps_device'
p75
aS'-Ilib/TinyGPS/Examples/simple_test'
p76
aS'-Ilib/LSM303'
p77
aS'-I/usr/share/arduino/libraries/SoftwareSerial'
p78
aS'-I/usr/share/arduino/libraries/Servo'
p79
aS'-Ilib/ros_lib'
p80
aS'-Ilib/ros_lib/diagnostic_msgs'
p81
aS'-Ilib/ros_lib/ros'
p82
aS'-Ilib/ros_lib/std_msgs'
p83
aS'-Ilib/ros_lib/tf'
p84
aS'-Ilib/ros_lib/nav_msgs'
p85
aS'-Ilib/ros_lib/rosserial_arduino'
p86
aS'-Ilib/ros_lib/rosserial_msgs'
p87
aS'-Ilib/ros_lib/tests'
p88
aS'-Ilib/ros_lib/sensor_msgs'
p89
aS'-Ilib/ros_lib/geometry_msgs'
p90
aS'-Ilib/ros_lib/tests/time_test'
p91
aS'-Ilib/ros_lib/tests/array_test'
p92
aS'-Ilib/ros_lib/tests/float64_test'
p93
aS'-I/usr/share/arduino/libraries/Wire'
p94
aS'-I/usr/share/arduino/libraries/Wire/utility'
p95
aS'-I/usr/share/arduino/hardware/arduino/cores/arduino'
p96
atp97
Rp98
tp99
a(g55
g32
(g33
g34
(lp100
S'.build/alamode/src/dependencies.d'
p101
aS'.build/alamode/arduino/dependencies.d'
p102
aS'.build/alamode/TinyGPS/dependencies.d'
p103
aS'.build/alamode/LSM303/dependencies.d'
p104
aS'.build/alamode/Wire/dependencies.d'
p105
aS'.build/alamode/SoftwareSerial/dependencies.d'
p106
aS'.build/alamode/Servo/dependencies.d'
p107
aS'.build/alamode/ros_lib/dependencies.d'
p108
atp109
Rp110
tp111
a(S'elfflags'
p112
g32
(g33
g34
(lp113
g66
aS'-Wl,--gc-sections'
p114
ag62
atp115
Rp116
tp117
a(S'arduino_lib_version'
p118
g32
(cino.environment
Version
p119
c__builtin__
tuple
p120
(I1
I0
tp121
tp122
Rp123
tp124
a(S'objcopy'
p125
S'/usr/bin/avr-objcopy'
p126
tp127
a(S'ar'
p128
S'/usr/bin/avr-ar'
p129
tp130
a(S'board_models'
p131
cino.environment
BoardModels
p132
((lp133
(lp134
S'uno'
p135
a(dp136
S'bootloader'
p137
(dp138
S'extended_fuses'
p139
S'0x05'
p140
sS'high_fuses'
p141
S'0xde'
p142
sS'low_fuses'
p143
S'0xff'
p144
sS'lock_bits'
p145
S'0x0F'
p146
sS'file'
p147
S'optiboot_atmega328.hex'
p148
sS'path'
p149
S'optiboot'
p150
sS'unlock_bits'
p151
S'0x3F'
p152
ssS'build'
p153
(dp154
S'core'
p155
S'arduino'
p156
sS'mcu'
p157
S'atmega328p'
p158
sS'f_cpu'
p159
S'16000000L'
p160
sS'variant'
p161
S'standard'
p162
ssS'name'
p163
S'Arduino Uno'
p164
sS'upload'
p165
(dp166
S'speed'
p167
S'115200'
p168
sS'maximum_size'
p169
S'32256'
p170
sS'protocol'
p171
S'arduino'
p172
ssaa(lp173
S'alamode'
p174
a(dp175
S'bootloader'
p176
(dp177
S'extended_fuses'
p178
S'0x05'
p179
sS'high_fuses'
p180
S'0xde'
p181
sS'low_fuses'
p182
S'0xff'
p183
sS'lock_bits'
p184
S'0x0F'
p185
sS'file'
p186
S'optiboot_atmega328.hex'
p187
sS'path'
p188
S'optiboot'
p189
sS'unlock_bits'
p190
S'0x3F'
p191
ssS'build'
p192
(dp193
S'core'
p194
S'arduino'
p195
sS'mcu'
p196
S'atmega328p'
p197
sS'f_cpu'
p198
S'16000000L'
p199
sS'variant'
p200
S'standard'
p201
ssS'name'
p202
S'AlaMode'
p203
sS'upload'
p204
(dp205
S'speed'
p206
S'115200'
p207
sS'maximum_size'
p208
S'32256'
p209
sS'protocol'
p210
S'alamode'
p211
ssaa(lp212
S'atmega328'
p213
a(dp214
S'bootloader'
p215
(dp216
S'extended_fuses'
p217
S'0x05'
p218
sS'high_fuses'
p219
S'0xDA'
p220
sS'low_fuses'
p221
S'0xFF'
p222
sS'lock_bits'
p223
S'0x0F'
p224
sS'file'
p225
S'ATmegaBOOT_168_atmega328.hex'
p226
sS'path'
p227
S'atmega'
p228
sS'unlock_bits'
p229
S'0x3F'
p230
ssS'build'
p231
(dp232
S'core'
p233
S'arduino'
p234
sS'mcu'
p235
S'atmega328p'
p236
sS'f_cpu'
p237
S'16000000L'
p238
sS'variant'
p239
S'standard'
p240
ssS'name'
p241
S'Arduino Duemilanove w/ ATmega328'
p242
sS'upload'
p243
(dp244
S'speed'
p245
S'57600'
p246
sS'maximum_size'
p247
S'30720'
p248
sS'protocol'
p249
S'arduino'
p250
ssaa(lp251
S'diecimila'
p252
a(dp253
S'bootloader'
p254
(dp255
S'extended_fuses'
p256
S'0x00'
p257
sS'high_fuses'
p258
S'0xdd'
p259
sS'low_fuses'
p260
S'0xff'
p261
sS'lock_bits'
p262
S'0x0F'
p263
sS'file'
p264
S'ATmegaBOOT_168_diecimila.hex'
p265
sS'path'
p266
S'atmega'
p267
sS'unlock_bits'
p268
S'0x3F'
p269
ssS'build'
p270
(dp271
S'core'
p272
S'arduino'
p273
sS'mcu'
p274
S'atmega168'
p275
sS'f_cpu'
p276
S'16000000L'
p277
sS'variant'
p278
S'standard'
p279
ssS'name'
p280
S'Arduino Diecimila or Duemilanove w/ ATmega168'
p281
sS'upload'
p282
(dp283
S'speed'
p284
S'19200'
p285
sS'maximum_size'
p286
S'14336'
p287
sS'protocol'
p288
S'arduino'
p289
ssaa(lp290
S'nano328'
p291
a(dp292
S'bootloader'
p293
(dp294
S'extended_fuses'
p295
S'0x05'
p296
sS'high_fuses'
p297
S'0xDA'
p298
sS'low_fuses'
p299
S'0xFF'
p300
sS'lock_bits'
p301
S'0x0F'
p302
sS'file'
p303
S'ATmegaBOOT_168_atmega328.hex'
p304
sS'path'
p305
S'atmega'
p306
sS'unlock_bits'
p307
S'0x3F'
p308
ssS'build'
p309
(dp310
S'core'
p311
S'arduino'
p312
sS'mcu'
p313
S'atmega328p'
p314
sS'f_cpu'
p315
S'16000000L'
p316
sS'variant'
p317
S'eightanaloginputs'
p318
ssS'name'
p319
S'Arduino Nano w/ ATmega328'
p320
sS'upload'
p321
(dp322
S'speed'
p323
S'57600'
p324
sS'maximum_size'
p325
S'30720'
p326
sS'protocol'
p327
S'arduino'
p328
ssaa(lp329
S'nano'
p330
a(dp331
S'bootloader'
p332
(dp333
S'extended_fuses'
p334
S'0x00'
p335
sS'high_fuses'
p336
S'0xdd'
p337
sS'low_fuses'
p338
S'0xff'
p339
sS'lock_bits'
p340
S'0x0F'
p341
sS'file'
p342
S'ATmegaBOOT_168_diecimila.hex'
p343
sS'path'
p344
S'atmega'
p345
sS'unlock_bits'
p346
S'0x3F'
p347
ssS'build'
p348
(dp349
S'core'
p350
S'arduino'
p351
sS'mcu'
p352
S'atmega168'
p353
sS'f_cpu'
p354
S'16000000L'
p355
sS'variant'
p356
S'eightanaloginputs'
p357
ssS'name'
p358
S'Arduino Nano w/ ATmega168'
p359
sS'upload'
p360
(dp361
S'speed'
p362
S'19200'
p363
sS'maximum_size'
p364
S'14336'
p365
sS'protocol'
p366
S'arduino'
p367
ssaa(lp368
S'mega2560'
p369
a(dp370
S'bootloader'
p371
(dp372
S'extended_fuses'
p373
S'0xFD'
p374
sS'high_fuses'
p375
S'0xD8'
p376
sS'low_fuses'
p377
S'0xFF'
p378
sS'lock_bits'
p379
S'0x0F'
p380
sS'file'
p381
S'stk500boot_v2_mega2560.hex'
p382
sS'path'
p383
S'stk500v2'
p384
sS'unlock_bits'
p385
S'0x3F'
p386
ssS'build'
p387
(dp388
S'core'
p389
S'arduino'
p390
sS'mcu'
p391
S'atmega2560'
p392
sS'f_cpu'
p393
S'16000000L'
p394
sS'variant'
p395
S'mega'
p396
ssS'name'
p397
S'Arduino Mega 2560 or Mega ADK'
p398
sS'upload'
p399
(dp400
S'speed'
p401
S'115200'
p402
sS'maximum_size'
p403
S'258048'
p404
sS'protocol'
p405
S'stk500v2'
p406
ssaa(lp407
S'mega'
p408
a(dp409
S'bootloader'
p410
(dp411
S'extended_fuses'
p412
S'0xF5'
p413
sS'high_fuses'
p414
S'0xDA'
p415
sS'low_fuses'
p416
S'0xFF'
p417
sS'lock_bits'
p418
S'0x0F'
p419
sS'file'
p420
S'ATmegaBOOT_168_atmega1280.hex'
p421
sS'path'
p422
S'atmega'
p423
sS'unlock_bits'
p424
S'0x3F'
p425
ssS'build'
p426
(dp427
S'core'
p428
S'arduino'
p429
sS'mcu'
p430
S'atmega1280'
p431
sS'f_cpu'
p432
S'16000000L'
p433
sS'variant'
p434
S'mega'
p435
ssS'name'
p436
S'Arduino Mega (ATmega1280)'
p437
sS'upload'
p438
(dp439
S'speed'
p440
S'57600'
p441
sS'maximum_size'
p442
S'126976'
p443
sS'protocol'
p444
S'arduino'
p445
ssaa(lp446
S'mini328'
p447
a(dp448
S'bootloader'
p449
(dp450
S'extended_fuses'
p451
S'0x05'
p452
sS'high_fuses'
p453
S'0xd8'
p454
sS'low_fuses'
p455
S'0xff'
p456
sS'lock_bits'
p457
S'0x0F'
p458
sS'file'
p459
S'optiboot_atmega328-Mini.hex'
p460
sS'path'
p461
S'optiboot'
p462
sS'unlock_bits'
p463
S'0x3F'
p464
ssS'build'
p465
(dp466
S'core'
p467
S'arduino'
p468
sS'mcu'
p469
S'atmega328p'
p470
sS'f_cpu'
p471
S'16000000L'
p472
sS'variant'
p473
S'eightanaloginputs'
p474
ssS'name'
p475
S'Arduino Mini w/ ATmega328'
p476
sS'upload'
p477
(dp478
S'speed'
p479
S'115200'
p480
sS'maximum_size'
p481
S'28672'
p482
sS'protocol'
p483
S'stk500'
p484
ssaa(lp485
S'mini'
p486
a(dp487
S'bootloader'
p488
(dp489
S'extended_fuses'
p490
S'0x00'
p491
sS'high_fuses'
p492
S'0xdd'
p493
sS'low_fuses'
p494
S'0xff'
p495
sS'lock_bits'
p496
S'0x0F'
p497
sS'file'
p498
S'ATmegaBOOT_168_ng.hex'
p499
sS'path'
p500
S'atmega'
p501
sS'unlock_bits'
p502
S'0x3F'
p503
ssS'build'
p504
(dp505
S'core'
p506
S'arduino'
p507
sS'mcu'
p508
S'atmega168'
p509
sS'f_cpu'
p510
S'16000000L'
p511
sS'variant'
p512
S'eightanaloginputs'
p513
ssS'name'
p514
S'Arduino Mini w/ ATmega168'
p515
sS'upload'
p516
(dp517
S'speed'
p518
S'19200'
p519
sS'maximum_size'
p520
S'14336'
p521
sS'protocol'
p522
S'arduino'
p523
ssaa(lp524
S'ethernet'
p525
a(dp526
S'bootloader'
p527
(dp528
S'extended_fuses'
p529
S'0x05'
p530
sS'high_fuses'
p531
S'0xde'
p532
sS'low_fuses'
p533
S'0xff'
p534
sS'lock_bits'
p535
S'0x0F'
p536
sS'file'
p537
S'optiboot_atmega328.hex'
p538
sS'path'
p539
S'optiboot'
p540
sS'unlock_bits'
p541
S'0x3F'
p542
ssS'build'
p543
(dp544
S'f_cpu'
p545
S'16000000L'
p546
sS'mcu'
p547
S'atmega328p'
p548
sS'variant'
p549
S'standard'
p550
sS'core'
p551
S'arduino'
p552
ssS'name'
p553
S'Arduino Ethernet'
p554
sS'upload'
p555
(dp556
S'speed'
p557
S'115200'
p558
sS'maximum_size'
p559
S'32256'
p560
sS'protocol'
p561
S'arduino'
p562
ssaa(lp563
S'fio'
p564
a(dp565
S'bootloader'
p566
(dp567
S'extended_fuses'
p568
S'0x05'
p569
sS'high_fuses'
p570
S'0xDA'
p571
sS'low_fuses'
p572
S'0xFF'
p573
sS'lock_bits'
p574
S'0x0F'
p575
sS'file'
p576
S'ATmegaBOOT_168_atmega328_pro_8MHz.hex'
p577
sS'path'
p578
S'arduino:atmega'
p579
sS'unlock_bits'
p580
S'0x3F'
p581
ssS'build'
p582
(dp583
S'core'
p584
S'arduino'
p585
sS'mcu'
p586
S'atmega328p'
p587
sS'f_cpu'
p588
S'8000000L'
p589
sS'variant'
p590
S'eightanaloginputs'
p591
ssS'name'
p592
S'Arduino Fio'
p593
sS'upload'
p594
(dp595
S'speed'
p596
S'57600'
p597
sS'maximum_size'
p598
S'30720'
p599
sS'protocol'
p600
S'arduino'
p601
ssaa(lp602
S'bt328'
p603
a(dp604
S'bootloader'
p605
(dp606
S'extended_fuses'
p607
S'0x05'
p608
sS'high_fuses'
p609
S'0xd8'
p610
sS'low_fuses'
p611
S'0xff'
p612
sS'lock_bits'
p613
S'0x0F'
p614
sS'file'
p615
S'ATmegaBOOT_168_atmega328_bt.hex'
p616
sS'path'
p617
S'bt'
p618
sS'unlock_bits'
p619
S'0x3F'
p620
ssS'build'
p621
(dp622
S'core'
p623
S'arduino'
p624
sS'mcu'
p625
S'atmega328p'
p626
sS'f_cpu'
p627
S'16000000L'
p628
sS'variant'
p629
S'eightanaloginputs'
p630
ssS'name'
p631
S'Arduino BT w/ ATmega328'
p632
sS'upload'
p633
(dp634
S'speed'
p635
S'19200'
p636
sS'maximum_size'
p637
S'28672'
p638
sS'protocol'
p639
S'arduino'
p640
sS'disable_flushing'
p641
S'true'
p642
ssaa(lp643
S'bt'
p644
a(dp645
S'bootloader'
p646
(dp647
S'extended_fuses'
p648
S'0x00'
p649
sS'high_fuses'
p650
S'0xdd'
p651
sS'low_fuses'
p652
S'0xff'
p653
sS'lock_bits'
p654
S'0x0F'
p655
sS'file'
p656
S'ATmegaBOOT_168.hex'
p657
sS'path'
p658
S'bt'
p659
sS'unlock_bits'
p660
S'0x3F'
p661
ssS'build'
p662
(dp663
S'core'
p664
S'arduino'
p665
sS'mcu'
p666
S'atmega168'
p667
sS'f_cpu'
p668
S'16000000L'
p669
sS'variant'
p670
S'eightanaloginputs'
p671
ssS'name'
p672
S'Arduino BT w/ ATmega168'
p673
sS'upload'
p674
(dp675
S'speed'
p676
S'19200'
p677
sS'maximum_size'
p678
S'14336'
p679
sS'protocol'
p680
S'arduino'
p681
sS'disable_flushing'
p682
S'true'
p683
ssaa(lp684
S'lilypad328'
p685
a(dp686
S'bootloader'
p687
(dp688
S'extended_fuses'
p689
S'0x05'
p690
sS'high_fuses'
p691
S'0xDA'
p692
sS'low_fuses'
p693
S'0xFF'
p694
sS'lock_bits'
p695
S'0x0F'
p696
sS'file'
p697
S'ATmegaBOOT_168_atmega328_pro_8MHz.hex'
p698
sS'path'
p699
S'atmega'
p700
sS'unlock_bits'
p701
S'0x3F'
p702
ssS'build'
p703
(dp704
S'core'
p705
S'arduino'
p706
sS'mcu'
p707
S'atmega328p'
p708
sS'f_cpu'
p709
S'8000000L'
p710
sS'variant'
p711
S'standard'
p712
ssS'name'
p713
S'LilyPad Arduino w/ ATmega328'
p714
sS'upload'
p715
(dp716
S'speed'
p717
S'57600'
p718
sS'maximum_size'
p719
S'30720'
p720
sS'protocol'
p721
S'arduino'
p722
ssaa(lp723
S'lilypad'
p724
a(dp725
S'bootloader'
p726
(dp727
S'extended_fuses'
p728
S'0x00'
p729
sS'high_fuses'
p730
S'0xdd'
p731
sS'low_fuses'
p732
S'0xe2'
p733
sS'lock_bits'
p734
S'0x0F'
p735
sS'file'
p736
S'LilyPadBOOT_168.hex'
p737
sS'path'
p738
S'lilypad'
p739
sS'unlock_bits'
p740
S'0x3F'
p741
ssS'build'
p742
(dp743
S'core'
p744
S'arduino'
p745
sS'mcu'
p746
S'atmega168'
p747
sS'f_cpu'
p748
S'8000000L'
p749
sS'variant'
p750
S'standard'
p751
ssS'name'
p752
S'LilyPad Arduino w/ ATmega168'
p753
sS'upload'
p754
(dp755
S'speed'
p756
S'19200'
p757
sS'maximum_size'
p758
S'14336'
p759
sS'protocol'
p760
S'arduino'
p761
ssaa(lp762
S'pro5v328'
p763
a(dp764
S'bootloader'
p765
(dp766
S'extended_fuses'
p767
S'0x05'
p768
sS'high_fuses'
p769
S'0xDA'
p770
sS'low_fuses'
p771
S'0xFF'
p772
sS'lock_bits'
p773
S'0x0F'
p774
sS'file'
p775
S'ATmegaBOOT_168_atmega328.hex'
p776
sS'path'
p777
S'atmega'
p778
sS'unlock_bits'
p779
S'0x3F'
p780
ssS'build'
p781
(dp782
S'core'
p783
S'arduino'
p784
sS'mcu'
p785
S'atmega328p'
p786
sS'f_cpu'
p787
S'16000000L'
p788
sS'variant'
p789
S'standard'
p790
ssS'name'
p791
S'Arduino Pro or Pro Mini (5V, 16 MHz) w/ ATmega328'
p792
sS'upload'
p793
(dp794
S'speed'
p795
S'57600'
p796
sS'maximum_size'
p797
S'30720'
p798
sS'protocol'
p799
S'arduino'
p800
ssaa(lp801
S'pro5v'
p802
a(dp803
S'bootloader'
p804
(dp805
S'extended_fuses'
p806
S'0x00'
p807
sS'high_fuses'
p808
S'0xdd'
p809
sS'low_fuses'
p810
S'0xff'
p811
sS'lock_bits'
p812
S'0x0F'
p813
sS'file'
p814
S'ATmegaBOOT_168_diecimila.hex'
p815
sS'path'
p816
S'atmega'
p817
sS'unlock_bits'
p818
S'0x3F'
p819
ssS'build'
p820
(dp821
S'core'
p822
S'arduino'
p823
sS'mcu'
p824
S'atmega168'
p825
sS'f_cpu'
p826
S'16000000L'
p827
sS'variant'
p828
S'standard'
p829
ssS'name'
p830
S'Arduino Pro or Pro Mini (5V, 16 MHz) w/ ATmega168'
p831
sS'upload'
p832
(dp833
S'speed'
p834
S'19200'
p835
sS'maximum_size'
p836
S'14336'
p837
sS'protocol'
p838
S'arduino'
p839
ssaa(lp840
S'pro328'
p841
a(dp842
S'bootloader'
p843
(dp844
S'extended_fuses'
p845
S'0x05'
p846
sS'high_fuses'
p847
S'0xDA'
p848
sS'low_fuses'
p849
S'0xFF'
p850
sS'lock_bits'
p851
S'0x0F'
p852
sS'file'
p853
S'ATmegaBOOT_168_atmega328_pro_8MHz.hex'
p854
sS'path'
p855
S'atmega'
p856
sS'unlock_bits'
p857
S'0x3F'
p858
ssS'build'
p859
(dp860
S'core'
p861
S'arduino'
p862
sS'mcu'
p863
S'atmega328p'
p864
sS'f_cpu'
p865
S'8000000L'
p866
sS'variant'
p867
S'standard'
p868
ssS'name'
p869
S'Arduino Pro or Pro Mini (3.3V, 8 MHz) w/ ATmega328'
p870
sS'upload'
p871
(dp872
S'speed'
p873
S'57600'
p874
sS'maximum_size'
p875
S'30720'
p876
sS'protocol'
p877
S'arduino'
p878
ssaa(lp879
S'pro'
p880
a(dp881
S'bootloader'
p882
(dp883
S'extended_fuses'
p884
S'0x00'
p885
sS'high_fuses'
p886
S'0xdd'
p887
sS'low_fuses'
p888
S'0xc6'
p889
sS'lock_bits'
p890
S'0x0F'
p891
sS'file'
p892
S'ATmegaBOOT_168_pro_8MHz.hex'
p893
sS'path'
p894
S'atmega'
p895
sS'unlock_bits'
p896
S'0x3F'
p897
ssS'build'
p898
(dp899
S'core'
p900
S'arduino'
p901
sS'mcu'
p902
S'atmega168'
p903
sS'f_cpu'
p904
S'8000000L'
p905
sS'variant'
p906
S'standard'
p907
ssS'name'
p908
S'Arduino Pro or Pro Mini (3.3V, 8 MHz) w/ ATmega168'
p909
sS'upload'
p910
(dp911
S'speed'
p912
S'19200'
p913
sS'maximum_size'
p914
S'14336'
p915
sS'protocol'
p916
S'arduino'
p917
ssaa(lp918
S'atmega168'
p919
a(dp920
S'bootloader'
p921
(dp922
S'extended_fuses'
p923
S'0x00'
p924
sS'high_fuses'
p925
S'0xdd'
p926
sS'low_fuses'
p927
S'0xff'
p928
sS'lock_bits'
p929
S'0x0F'
p930
sS'file'
p931
S'ATmegaBOOT_168_ng.hex'
p932
sS'path'
p933
S'atmega'
p934
sS'unlock_bits'
p935
S'0x3F'
p936
ssS'build'
p937
(dp938
S'core'
p939
S'arduino'
p940
sS'mcu'
p941
S'atmega168'
p942
sS'f_cpu'
p943
S'16000000L'
p944
sS'variant'
p945
S'standard'
p946
ssS'name'
p947
S'Arduino NG or older w/ ATmega168'
p948
sS'upload'
p949
(dp950
S'speed'
p951
S'19200'
p952
sS'maximum_size'
p953
S'14336'
p954
sS'protocol'
p955
S'arduino'
p956
ssaa(lp957
S'atmega8'
p958
a(dp959
S'bootloader'
p960
(dp961
S'high_fuses'
p962
S'0xca'
p963
sS'low_fuses'
p964
S'0xdf'
p965
sS'lock_bits'
p966
S'0x0F'
p967
sS'file'
p968
S'ATmegaBOOT.hex'
p969
sS'path'
p970
S'atmega8'
p971
sS'unlock_bits'
p972
S'0x3F'
p973
ssS'build'
p974
(dp975
S'core'
p976
S'arduino'
p977
sS'mcu'
p978
S'atmega8'
p979
sS'f_cpu'
p980
S'16000000L'
p981
sS'variant'
p982
S'standard'
p983
ssS'name'
p984
S'Arduino NG or older w/ ATmega8'
p985
sS'upload'
p986
(dp987
S'speed'
p988
S'19200'
p989
sS'maximum_size'
p990
S'7168'
p991
sS'protocol'
p992
S'arduino'
p993
ssaatp994
Rp995
(dp996
S'default'
p997
S'uno'
p998
sbtp999
a(S'cc'
p1000
S'/usr/bin/avr-gcc'
p1001
tp1002
a.